target datalayout = "e-m:e-p270:32:32-p271:32:32-p272:64:64-i64:64-i128:128-f80:128-n8:16:32:64-S128"
target triple = "x86_64-pc-linux-gnu"

%struct.SDL_EVDEV_keyboard_state = type { i32, i8, i32, ptr, [9 x i8], i8, i32, ptr, i32, i8, i8, i8, i8, i8, [128 x i8], i32, ptr, ptr, ptr, ptr }

; Function Attrs: nounwind uwtable
define internal void @chg_vc_kbd_lock(ptr noundef %0, i32 noundef %1) #0 {
  %3 = alloca ptr, align 8
  %4 = alloca i32, align 4
  store ptr %0, ptr %3, align 8
  store i32 %1, ptr %4, align 4
  %5 = load i32, ptr %4, align 4
  %6 = shl i32 1, %5
  %7 = load ptr, ptr %3, align 8
  %8 = getelementptr inbounds nuw %struct.SDL_EVDEV_keyboard_state, ptr %7, i32 0, i32 10
  %9 = load i8, ptr %8, align 1
  %10 = zext i8 %9 to i32
  %11 = xor i32 %10, %6
  %12 = trunc i32 %11 to i8
  store i8 %12, ptr %8, align 1
  ret void
}

; Function Attrs: nounwind uwtable
define internal void @k_lock(ptr noundef %0, i8 noundef zeroext %1, i8 noundef signext %2) #0 {
  %4 = alloca ptr, align 8
  %5 = alloca i8, align 1
  %6 = alloca i8, align 1
  store ptr %0, ptr %4, align 8
  store i8 %1, ptr %5, align 1
  store i8 %2, ptr %6, align 1
  %7 = load i8, ptr %6, align 1
  %8 = sext i8 %7 to i32
  %9 = icmp ne i32 %8, 0
  br i1 %9, label %15, label %10

10:                                               ; preds = %3
  %11 = load ptr, ptr %4, align 8
  %12 = getelementptr inbounds nuw %struct.SDL_EVDEV_keyboard_state, ptr %11, i32 0, i32 9
  %13 = load i8, ptr %12, align 4, !range !3, !noundef !4
  %14 = trunc i8 %13 to i1
  br i1 %14, label %15, label %16

15:                                               ; preds = %10, %3
  br label %20

16:                                               ; preds = %10
  %17 = load ptr, ptr %4, align 8
  %18 = load i8, ptr %5, align 1
  %19 = zext i8 %18 to i32
  call void @chg_vc_kbd_lock(ptr noundef %17, i32 noundef %19)
  br label %20

20:                                               ; preds = %16, %15
  ret void
}