; Function Attrs: mustprogress nofree norecurse nosync nounwind willreturn memory(argmem: readwrite) uwtable
define internal void @k_lock(ptr noundef captures(none) %0, i8 noundef zeroext %1, i8 noundef signext %2) #8 {
  %.not = icmp eq i8 %2, 0
  br i1 %.not, label %4, label %15

4:                                                ; preds = %3
  %5 = getelementptr inbounds nuw i8, ptr %0, i64 52
  %6 = load i8, ptr %5, align 4, !range !3, !noundef !4
  %7 = trunc nuw i8 %6 to i1
  br i1 %7, label %15, label %8

8:                                                ; preds = %4
  %9 = zext nneg i8 %1 to i32
  %10 = shl nuw i32 1, %9
  %11 = getelementptr inbounds nuw i8, ptr %0, i64 53
  %12 = load i8, ptr %11, align 1
  %13 = trunc i32 %10 to i8
  %14 = xor i8 %12, %13
  store i8 %14, ptr %11, align 1
  br label %15

15:                                               ; preds = %3, %4, %8
  ret void
}